; Function Attrs: nounwind uwtable
define void @Java_sun_nio_ch_Net_initIDs(ptr noundef %0, ptr nocapture noundef readnone %1) local_unnamed_addr #0 {
  %3 = load ptr, ptr %0, align 8
  %4 = getelementptr inbounds i8, ptr %3, i64 48
  %5 = load ptr, ptr %4, align 8
  %6 = tail call ptr %5(ptr noundef nonnull %0, ptr noundef nonnull @.str) #7
  %7 = icmp eq ptr %6, null
  br i1 %7, label %22, label %8

8:                                                ; preds = %2
  %9 = load ptr, ptr %0, align 8
  %10 = getelementptr inbounds i8, ptr %9, i64 168
  %11 = load ptr, ptr %10, align 8
  %12 = tail call ptr %11(ptr noundef nonnull %0, ptr noundef nonnull %6) #7
  store ptr %12, ptr @isa_class, align 8
  %13 = icmp eq ptr %12, null
  br i1 %13, label %14, label %15

14:                                               ; preds = %8
  tail call void @JNU_ThrowOutOfMemoryError(ptr noundef nonnull %0, ptr noundef null) #7
  br label %22

15:                                               ; preds = %8
  %16 = load ptr, ptr %0, align 8
  %17 = getelementptr inbounds i8, ptr %16, i64 264
  %18 = load ptr, ptr %17, align 8
  %19 = tail call ptr %18(ptr noundef nonnull %0, ptr noundef nonnull %6, ptr noundef nonnull @.str.1, ptr noundef nonnull @.str.2) #7
  store ptr %19, ptr @isa_ctorID, align 8
  %20 = icmp eq ptr %19, null
  br i1 %20, label %22, label %21

21:                                               ; preds = %15
  tail call void @initInetAddressIDs(ptr noundef nonnull %0) #7
  br label %22

22:                                               ; preds = %15, %2, %21, %14
  ret void
}